; Function Attrs: mustprogress uwtable
define dso_local void @_ZN12RandomNumberC2Em(ptr noundef nonnull align 8 dereferenceable(72) %0, i64 noundef %1) unnamed_addr #3 align 2 personality ptr @__gxx_personality_v0 {
  %3 = alloca i32, align 4
  store ptr getelementptr inbounds ({ [8 x ptr] }, ptr @_ZTV12RandomNumber, i64 0, i32 0, i64 2), ptr %0, align 8
  %4 = getelementptr inbounds i8, ptr %0, i64 16
  %5 = getelementptr inbounds i8, ptr %0, i64 24
  store i32 0, ptr %5, align 8
  %6 = getelementptr inbounds i8, ptr %0, i64 32
  store ptr null, ptr %6, align 8
  %7 = getelementptr inbounds i8, ptr %0, i64 40
  store ptr %5, ptr %7, align 8
  %8 = getelementptr inbounds i8, ptr %0, i64 48
  store ptr %5, ptr %8, align 8
  %9 = getelementptr inbounds i8, ptr %0, i64 56
  store i64 0, ptr %9, align 8
  %10 = getelementptr inbounds i8, ptr %0, i64 64
  store i64 %1, ptr %10, align 8
  br label %11

11:                                               ; preds = %2, %14
  %12 = phi i1 [ true, %2 ], [ false, %14 ]
  %.07 = phi i32 [ 0, %2 ], [ 1, %14 ]
  store i32 %.07, ptr %3, align 4
  %13 = invoke noundef nonnull align 8 dereferenceable(8) ptr @_ZNSt3mapI16RNDNUM_GENERATORP18AbsRndNumGeneratorSt4lessIS0_ESaISt4pairIKS0_S2_EEEixERS6_(ptr noundef nonnull align 8 dereferenceable(48) %4, ptr noundef nonnull align 4 dereferenceable(4) %3)
          to label %14 unwind label %15

14:                                               ; preds = %11
  store ptr null, ptr %13, align 8
  br i1 %12, label %11, label %17, !llvm.loop !5

15:                                               ; preds = %11
  %16 = landingpad { ptr, i32 }
          cleanup
  call void @_ZNSt3mapI16RNDNUM_GENERATORP18AbsRndNumGeneratorSt4lessIS0_ESaISt4pairIKS0_S2_EEED2Ev(ptr noundef nonnull align 8 dereferenceable(48) %4) #13
  resume { ptr, i32 } %16

17:                                               ; preds = %14
  ret void
}